target datalayout = "e-m:e-p270:32:32-p271:32:32-p272:64:64-i64:64-i128:128-f80:128-n8:16:32:64-S128"
target triple = "x86_64-pc-linux-gnu"

%struct.rb_data_type_struct = type { ptr, %struct.anon, ptr, ptr, i64 }
%struct.anon = type { ptr, ptr, ptr, ptr, [1 x ptr] }

@eOCSPError = internal global i64 0, align 8
@rb_eRuntimeError = external global i64, align 8
@ossl_ocsp_singleresp_type = internal constant %struct.rb_data_type_struct { ptr @.str.88, %struct.anon { ptr null, ptr @ossl_ocsp_singleresp_free, ptr null, ptr null, [1 x ptr] zeroinitializer }, ptr null, ptr null, i64 33 }, align 8
@.str.87 = private unnamed_addr constant [35 x i8] c"SingleResponse wasn't initialized!\00", align 1
@.str.91 = private unnamed_addr constant [24 x i8] c"OCSP_single_get0_status\00", align 1

; Function Attrs: nounwind sspstrong uwtable
define internal i64 @ossl_ocspsres_get_this_update(i64 noundef %0) #0 {
  %2 = alloca i64, align 8
  %3 = alloca i64, align 8
  %4 = alloca ptr, align 8
  %5 = alloca i32, align 4
  %6 = alloca ptr, align 8
  %7 = alloca i32, align 4
  store i64 %0, ptr %3, align 8, !tbaa !6
  call void @llvm.lifetime.start.p0(i64 8, ptr %4) #15
  call void @llvm.lifetime.start.p0(i64 4, ptr %5) #15
  call void @llvm.lifetime.start.p0(i64 8, ptr %6) #15
  br label %8

8:                                                ; preds = %1
  %9 = load i64, ptr %3, align 8, !tbaa !6
  %10 = call ptr @rb_check_typeddata(i64 noundef %9, ptr noundef @ossl_ocsp_singleresp_type)
  store ptr %10, ptr %4, align 8, !tbaa !46
  %11 = load ptr, ptr %4, align 8, !tbaa !46
  %12 = icmp ne ptr %11, null
  br i1 %12, label %15, label %13

13:                                               ; preds = %8
  %14 = load i64, ptr @rb_eRuntimeError, align 8, !tbaa !6
  call void (i64, ptr, ...) @ossl_raise(i64 noundef %14, ptr noundef @.str.87) #16
  unreachable

15:                                               ; preds = %8
  br label %16

16:                                               ; preds = %15
  br label %17

17:                                               ; preds = %16
  %18 = load ptr, ptr %4, align 8, !tbaa !46
  %19 = call i32 @OCSP_single_get0_status(ptr noundef %18, ptr noundef null, ptr noundef null, ptr noundef %6, ptr noundef null)
  store i32 %19, ptr %5, align 4, !tbaa !17
  %20 = load i32, ptr %5, align 4, !tbaa !17
  %21 = icmp slt i32 %20, 0
  br i1 %21, label %22, label %24

22:                                               ; preds = %17
  %23 = load i64, ptr @eOCSPError, align 8, !tbaa !6
  call void (i64, ptr, ...) @ossl_raise(i64 noundef %23, ptr noundef @.str.91) #16
  unreachable

24:                                               ; preds = %17
  %25 = load ptr, ptr %6, align 8, !tbaa !43
  %26 = icmp ne ptr %25, null
  br i1 %26, label %28, label %27

27:                                               ; preds = %24
  store i64 4, ptr %2, align 8
  store i32 1, ptr %7, align 4
  br label %31

28:                                               ; preds = %24
  %29 = load ptr, ptr %6, align 8, !tbaa !43
  %30 = call i64 @asn1time_to_time(ptr noundef %29)
  store i64 %30, ptr %2, align 8
  store i32 1, ptr %7, align 4
  br label %31

31:                                               ; preds = %28, %27
  call void @llvm.lifetime.end.p0(i64 8, ptr %6) #15
  call void @llvm.lifetime.end.p0(i64 4, ptr %5) #15
  call void @llvm.lifetime.end.p0(i64 8, ptr %4) #15
  %32 = load i64, ptr %2, align 8
  ret i64 %32
}